target datalayout = "e-m:e-p270:32:32-p271:32:32-p272:64:64-i64:64-i128:128-f80:128-n8:16:32:64-S128"
target triple = "x86_64-unknown-linux-gnu"

%struct.MemoryRegionOps = type { ptr, ptr, ptr, ptr, i32, %struct.anon.2, %struct.anon.3 }
%struct.anon.2 = type { i32, i32, i8, ptr }
%struct.anon.3 = type { i32, i32, i8 }
%struct.SiFivePDMAState = type { %struct.SysBusDevice, %struct.MemoryRegion, [8 x ptr], [4 x %struct.sifive_pdma_chan] }
%struct.SysBusDevice = type { %struct.DeviceState, i32, [32 x %struct.anon], i32, [32 x i32] }
%struct.DeviceState = type { %struct.Object, ptr, ptr, i8, i8, i64, ptr, i32, i8, ptr, %struct.NamedGPIOListHead, %struct.NamedClockListHead, %struct.BusStateHead, i32, i32, i32, %struct.ResettableState, ptr, %struct.MemReentrancyGuard }
%struct.Object = type { ptr, ptr, ptr, i32, ptr }
%struct.NamedGPIOListHead = type { ptr }
%struct.NamedClockListHead = type { ptr }
%struct.BusStateHead = type { ptr }
%struct.ResettableState = type { i32, i8, i8 }
%struct.MemReentrancyGuard = type { i8 }
%struct.anon = type { i64, ptr }
%struct.MemoryRegion = type { %struct.Object, i8, i8, i8, i8, i8, i8, i8, i8, i8, i8, ptr, ptr, ptr, ptr, ptr, ptr, i32, i128, i64, ptr, i64, i8, i8, i8, i8, i8, ptr, i64, i32, %union.anon, %union.anon.0, %union.anon.1, ptr, i32, ptr, ptr, i8 }
%union.anon = type { %struct.QTailQLink }
%struct.QTailQLink = type { ptr, ptr }
%union.anon.0 = type { %struct.QTailQLink }
%union.anon.1 = type { %struct.QTailQLink }
%struct.sifive_pdma_chan = type { i32, i32, i64, i64, i64, i32, i64, i64, i64, i32 }

@.str = private unnamed_addr constant [12 x i8] c"sifive.pdma\00", align 1
@.str.1 = private unnamed_addr constant [15 x i8] c"sys-bus-device\00", align 1
@.str.5 = private unnamed_addr constant [29 x i8] c"../qemu/hw/dma/sifive_pdma.c\00", align 1
@__func__.sifive_pdma_realize = private unnamed_addr constant [20 x i8] c"sifive_pdma_realize\00", align 1
@sifive_pdma_ops = internal constant %struct.MemoryRegionOps { ptr @sifive_pdma_read, ptr @sifive_pdma_write, ptr null, ptr null, i32 2, %struct.anon.2 { i32 4, i32 8, i8 0, ptr null }, %struct.anon.3 { i32 4, i32 8, i8 0 } }, align 8
@.str.13 = private unnamed_addr constant [98 x i8] c"/home/dtcxzyw/WorkSpace/Projects/compilers/llvm-opt-benchmark/bench/qemu/qemu/include/hw/sysbus.h\00", align 1
@__func__.SYS_BUS_DEVICE = private unnamed_addr constant [15 x i8] c"SYS_BUS_DEVICE\00", align 1

; Function Attrs: nounwind sspstrong uwtable
define internal ptr @SYS_BUS_DEVICE(ptr noundef %obj) #0 {
entry:
  %obj.addr = alloca ptr, align 8
  store ptr %obj, ptr %obj.addr, align 8
  %0 = load ptr, ptr %obj.addr, align 8
  %call = call ptr @object_dynamic_cast_assert(ptr noundef %0, ptr noundef @.str.1, ptr noundef @.str.13, i32 noundef 20, ptr noundef @__func__.SYS_BUS_DEVICE)
  ret ptr %call
}

; Function Attrs: nounwind sspstrong uwtable
define internal void @sifive_pdma_realize(ptr noundef %dev, ptr noundef %errp) #0 {
entry:
  %dev.addr = alloca ptr, align 8
  %errp.addr = alloca ptr, align 8
  %s = alloca ptr, align 8
  %i = alloca i32, align 4
  store ptr %dev, ptr %dev.addr, align 8
  store ptr %errp, ptr %errp.addr, align 8
  %0 = load ptr, ptr %dev.addr, align 8
  %call = call ptr @object_dynamic_cast_assert(ptr noundef %0, ptr noundef @.str, ptr noundef @.str.5, i32 noundef 456, ptr noundef @__func__.sifive_pdma_realize)
  store ptr %call, ptr %s, align 8
  %1 = load ptr, ptr %s, align 8
  %iomem = getelementptr inbounds %struct.SiFivePDMAState, ptr %1, i32 0, i32 1
  %2 = load ptr, ptr %dev.addr, align 8
  %3 = load ptr, ptr %s, align 8
  call void @memory_region_init_io(ptr noundef %iomem, ptr noundef %2, ptr noundef @sifive_pdma_ops, ptr noundef %3, ptr noundef @.str, i64 noundef 1048576)
  %4 = load ptr, ptr %dev.addr, align 8
  %call1 = call ptr @SYS_BUS_DEVICE(ptr noundef %4)
  %5 = load ptr, ptr %s, align 8
  %iomem2 = getelementptr inbounds %struct.SiFivePDMAState, ptr %5, i32 0, i32 1
  call void @sysbus_init_mmio(ptr noundef %call1, ptr noundef %iomem2)
  store i32 0, ptr %i, align 4
  br label %for.cond

for.cond:                                         ; preds = %for.inc, %entry
  %6 = load i32, ptr %i, align 4
  %cmp = icmp slt i32 %6, 8
  br i1 %cmp, label %for.body, label %for.end

for.body:                                         ; preds = %for.cond
  %7 = load ptr, ptr %dev.addr, align 8
  %call3 = call ptr @SYS_BUS_DEVICE(ptr noundef %7)
  %8 = load ptr, ptr %s, align 8
  %irq = getelementptr inbounds %struct.SiFivePDMAState, ptr %8, i32 0, i32 2
  %9 = load i32, ptr %i, align 4
  %idxprom = sext i32 %9 to i64
  %arrayidx = getelementptr [8 x ptr], ptr %irq, i64 0, i64 %idxprom
  call void @sysbus_init_irq(ptr noundef %call3, ptr noundef %arrayidx)
  br label %for.inc

for.inc:                                          ; preds = %for.body
  %10 = load i32, ptr %i, align 4
  %inc = add i32 %10, 1
  store i32 %inc, ptr %i, align 4
  br label %for.cond, !llvm.loop !5

for.end:                                          ; preds = %for.cond
  ret void
}