; Function Attrs: nounwind sspstrong uwtable
define internal void @sifive_pdma_realize(ptr noundef %dev, ptr readnone captures(none) %errp) #0 {
entry:
  %call = tail call ptr @object_dynamic_cast_assert(ptr noundef %dev, ptr noundef nonnull @.str, ptr noundef nonnull @.str.5, i32 noundef 456, ptr noundef nonnull @__func__.sifive_pdma_realize) #4
  %iomem = getelementptr inbounds nuw i8, ptr %call, i64 816
  tail call void @memory_region_init_io(ptr noundef nonnull %iomem, ptr noundef %dev, ptr noundef nonnull @sifive_pdma_ops, ptr noundef %call, ptr noundef nonnull @.str, i64 noundef 1048576) #4
  %call.i = tail call ptr @object_dynamic_cast_assert(ptr noundef %dev, ptr noundef nonnull @.str.1, ptr noundef nonnull @.str.13, i32 noundef 20, ptr noundef nonnull @__func__.SYS_BUS_DEVICE) #4
  tail call void @sysbus_init_mmio(ptr noundef %call.i, ptr noundef nonnull %iomem) #4
  %irq = getelementptr inbounds nuw i8, ptr %call, i64 1088
  br label %for.body

for.body:                                         ; preds = %entry, %for.body
  %indvars.iv = phi i64 [ 0, %entry ], [ %indvars.iv.next, %for.body ]
  %call.i9 = tail call ptr @object_dynamic_cast_assert(ptr noundef %dev, ptr noundef nonnull @.str.1, ptr noundef nonnull @.str.13, i32 noundef 20, ptr noundef nonnull @__func__.SYS_BUS_DEVICE) #4
  %arrayidx = getelementptr [8 x ptr], ptr %irq, i64 0, i64 %indvars.iv
  tail call void @sysbus_init_irq(ptr noundef %call.i9, ptr noundef %arrayidx) #4
  %indvars.iv.next = add nuw nsw i64 %indvars.iv, 1
  %exitcond.not = icmp eq i64 %indvars.iv.next, 8
  br i1 %exitcond.not, label %for.end, label %for.body, !llvm.loop !5

for.end:                                          ; preds = %for.body
  ret void
}